target datalayout = "e-m:e-p270:32:32-p271:32:32-p272:64:64-i64:64-i128:128-f80:128-n8:16:32:64-S128"
target triple = "x86_64-pc-linux-gnu"

%struct.ec_group_st = type { ptr, ptr, ptr, ptr, i32, i32, i32, i32, ptr, i64, ptr, [6 x i32], ptr, ptr, i32, ptr, ptr, ptr, ptr, i32, %union.anon, ptr, ptr }
%union.anon = type { ptr }

@.str = private unnamed_addr constant [32 x i8] c"../openssl/crypto/ec/ecp_mont.c\00", align 1
@__func__.ossl_ec_GFp_mont_field_inv = private unnamed_addr constant [27 x i8] c"ossl_ec_GFp_mont_field_inv\00", align 1

; Function Attrs: nounwind uwtable
define i32 @ossl_ec_GFp_mont_field_inv(ptr noundef %0, ptr noundef %1, ptr noundef %2, ptr noundef %3) #0 {
  %5 = alloca i32, align 4
  %6 = alloca ptr, align 8
  %7 = alloca ptr, align 8
  %8 = alloca ptr, align 8
  %9 = alloca ptr, align 8
  %10 = alloca ptr, align 8
  %11 = alloca ptr, align 8
  %12 = alloca i32, align 4
  %13 = alloca i32, align 4
  store ptr %0, ptr %6, align 8, !tbaa !3
  store ptr %1, ptr %7, align 8, !tbaa !20
  store ptr %2, ptr %8, align 8, !tbaa !20
  store ptr %3, ptr %9, align 8, !tbaa !21
  call void @llvm.lifetime.start.p0(i64 8, ptr %10) #3
  store ptr null, ptr %10, align 8, !tbaa !20
  call void @llvm.lifetime.start.p0(i64 8, ptr %11) #3
  store ptr null, ptr %11, align 8, !tbaa !21
  call void @llvm.lifetime.start.p0(i64 4, ptr %12) #3
  store i32 0, ptr %12, align 4, !tbaa !8
  %14 = load ptr, ptr %6, align 8, !tbaa !3
  %15 = getelementptr inbounds nuw %struct.ec_group_st, ptr %14, i32 0, i32 15
  %16 = load ptr, ptr %15, align 8, !tbaa !10
  %17 = icmp eq ptr %16, null
  br i1 %17, label %18, label %19

18:                                               ; preds = %4
  store i32 0, ptr %5, align 4
  store i32 1, ptr %13, align 4
  br label %73

19:                                               ; preds = %4
  %20 = load ptr, ptr %9, align 8, !tbaa !21
  %21 = icmp eq ptr %20, null
  br i1 %21, label %22, label %29

22:                                               ; preds = %19
  %23 = load ptr, ptr %6, align 8, !tbaa !3
  %24 = getelementptr inbounds nuw %struct.ec_group_st, ptr %23, i32 0, i32 21
  %25 = load ptr, ptr %24, align 8, !tbaa !24
  %26 = call ptr @BN_CTX_secure_new_ex(ptr noundef %25)
  store ptr %26, ptr %11, align 8, !tbaa !21
  store ptr %26, ptr %9, align 8, !tbaa !21
  %27 = icmp eq ptr %26, null
  br i1 %27, label %28, label %29

28:                                               ; preds = %22
  store i32 0, ptr %5, align 4
  store i32 1, ptr %13, align 4
  br label %73

29:                                               ; preds = %22, %19
  %30 = load ptr, ptr %9, align 8, !tbaa !21
  call void @BN_CTX_start(ptr noundef %30)
  %31 = load ptr, ptr %9, align 8, !tbaa !21
  %32 = call ptr @BN_CTX_get(ptr noundef %31)
  store ptr %32, ptr %10, align 8, !tbaa !20
  %33 = icmp eq ptr %32, null
  br i1 %33, label %34, label %35

34:                                               ; preds = %29
  br label %69

35:                                               ; preds = %29
  %36 = load ptr, ptr %10, align 8, !tbaa !20
  %37 = call i32 @BN_set_word(ptr noundef %36, i64 noundef 2)
  %38 = icmp ne i32 %37, 0
  br i1 %38, label %40, label %39

39:                                               ; preds = %35
  br label %69

40:                                               ; preds = %35
  %41 = load ptr, ptr %10, align 8, !tbaa !20
  %42 = load ptr, ptr %6, align 8, !tbaa !3
  %43 = getelementptr inbounds nuw %struct.ec_group_st, ptr %42, i32 0, i32 10
  %44 = load ptr, ptr %43, align 8, !tbaa !25
  %45 = load ptr, ptr %10, align 8, !tbaa !20
  %46 = call i32 @BN_sub(ptr noundef %41, ptr noundef %44, ptr noundef %45)
  %47 = icmp ne i32 %46, 0
  br i1 %47, label %49, label %48

48:                                               ; preds = %40
  br label %69

49:                                               ; preds = %40
  %50 = load ptr, ptr %7, align 8, !tbaa !20
  %51 = load ptr, ptr %8, align 8, !tbaa !20
  %52 = load ptr, ptr %10, align 8, !tbaa !20
  %53 = load ptr, ptr %6, align 8, !tbaa !3
  %54 = getelementptr inbounds nuw %struct.ec_group_st, ptr %53, i32 0, i32 10
  %55 = load ptr, ptr %54, align 8, !tbaa !25
  %56 = load ptr, ptr %9, align 8, !tbaa !21
  %57 = load ptr, ptr %6, align 8, !tbaa !3
  %58 = getelementptr inbounds nuw %struct.ec_group_st, ptr %57, i32 0, i32 15
  %59 = load ptr, ptr %58, align 8, !tbaa !10
  %60 = call i32 @BN_mod_exp_mont(ptr noundef %50, ptr noundef %51, ptr noundef %52, ptr noundef %55, ptr noundef %56, ptr noundef %59)
  %61 = icmp ne i32 %60, 0
  br i1 %61, label %63, label %62

62:                                               ; preds = %49
  br label %69

63:                                               ; preds = %49
  %64 = load ptr, ptr %7, align 8, !tbaa !20
  %65 = call i32 @BN_is_zero(ptr noundef %64)
  %66 = icmp ne i32 %65, 0
  br i1 %66, label %67, label %68

67:                                               ; preds = %63
  call void @ERR_new()
  call void @ERR_set_debug(ptr noundef @.str, i32 noundef 255, ptr noundef @__func__.ossl_ec_GFp_mont_field_inv)
  call void (i32, i32, ptr, ...) @ERR_set_error(i32 noundef 16, i32 noundef 165, ptr noundef null)
  br label %69

68:                                               ; preds = %63
  store i32 1, ptr %12, align 4, !tbaa !8
  br label %69

69:                                               ; preds = %68, %67, %62, %48, %39, %34
  %70 = load ptr, ptr %9, align 8, !tbaa !21
  call void @BN_CTX_end(ptr noundef %70)
  %71 = load ptr, ptr %11, align 8, !tbaa !21
  call void @BN_CTX_free(ptr noundef %71)
  %72 = load i32, ptr %12, align 4, !tbaa !8
  store i32 %72, ptr %5, align 4
  store i32 1, ptr %13, align 4
  br label %73

73:                                               ; preds = %69, %28, %18
  call void @llvm.lifetime.end.p0(i64 4, ptr %12) #3
  call void @llvm.lifetime.end.p0(i64 8, ptr %11) #3
  call void @llvm.lifetime.end.p0(i64 8, ptr %10) #3
  %74 = load i32, ptr %5, align 4
  ret i32 %74
}