; Function Attrs: nounwind uwtable
define range(i32 0, 2) i32 @ossl_ec_GFp_mont_field_inv(ptr noundef readonly captures(none) %0, ptr noundef %1, ptr noundef %2, ptr noundef %3) #1 {
  %5 = getelementptr inbounds nuw i8, ptr %0, i64 120
  %6 = load ptr, ptr %5, align 8, !tbaa !3
  %7 = icmp eq ptr %6, null
  br i1 %7, label %32, label %8

8:                                                ; preds = %4
  %9 = icmp eq ptr %3, null
  br i1 %9, label %10, label %15

10:                                               ; preds = %8
  %11 = getelementptr inbounds nuw i8, ptr %0, i64 168
  %12 = load ptr, ptr %11, align 8, !tbaa !17
  %13 = tail call ptr @BN_CTX_secure_new_ex(ptr noundef %12) #4
  %14 = icmp eq ptr %13, null
  br i1 %14, label %32, label %15

15:                                               ; preds = %10, %8
  %.020 = phi ptr [ %13, %10 ], [ %3, %8 ]
  %.019 = phi ptr [ %13, %10 ], [ null, %8 ]
  tail call void @BN_CTX_start(ptr noundef nonnull %.020) #4
  %16 = tail call ptr @BN_CTX_get(ptr noundef nonnull %.020) #4
  %17 = icmp eq ptr %16, null
  br i1 %17, label %31, label %18

18:                                               ; preds = %15
  %19 = tail call i32 @BN_set_word(ptr noundef nonnull %16, i64 noundef 2) #4
  %.not = icmp eq i32 %19, 0
  br i1 %.not, label %31, label %20

20:                                               ; preds = %18
  %21 = getelementptr inbounds nuw i8, ptr %0, i64 64
  %22 = load ptr, ptr %21, align 8, !tbaa !18
  %23 = tail call i32 @BN_sub(ptr noundef nonnull %16, ptr noundef %22, ptr noundef nonnull %16) #4
  %.not25 = icmp eq i32 %23, 0
  br i1 %.not25, label %31, label %24

24:                                               ; preds = %20
  %25 = load ptr, ptr %21, align 8, !tbaa !18
  %26 = load ptr, ptr %5, align 8, !tbaa !3
  %27 = tail call i32 @BN_mod_exp_mont(ptr noundef %1, ptr noundef %2, ptr noundef nonnull %16, ptr noundef %25, ptr noundef nonnull %.020, ptr noundef %26) #4
  %.not26 = icmp eq i32 %27, 0
  br i1 %.not26, label %31, label %28

28:                                               ; preds = %24
  %29 = tail call i32 @BN_is_zero(ptr noundef %1) #4
  %.not27 = icmp eq i32 %29, 0
  br i1 %.not27, label %31, label %30

30:                                               ; preds = %28
  tail call void @ERR_new() #4
  tail call void @ERR_set_debug(ptr noundef nonnull @.str, i32 noundef 255, ptr noundef nonnull @__func__.ossl_ec_GFp_mont_field_inv) #4
  tail call void (i32, i32, ptr, ...) @ERR_set_error(i32 noundef 16, i32 noundef 165, ptr noundef null) #4
  br label %31

31:                                               ; preds = %28, %24, %20, %18, %15, %30
  %.0 = phi i32 [ 0, %15 ], [ 0, %30 ], [ 0, %24 ], [ 0, %20 ], [ 0, %18 ], [ 1, %28 ]
  tail call void @BN_CTX_end(ptr noundef nonnull %.020) #4
  tail call void @BN_CTX_free(ptr noundef %.019) #4
  br label %32

32:                                               ; preds = %10, %4, %31
  %.021 = phi i32 [ %.0, %31 ], [ 0, %4 ], [ 0, %10 ]
  ret i32 %.021
}